target datalayout = "e-m:e-p270:32:32-p271:32:32-p272:64:64-i64:64-i128:128-f80:128-n8:16:32:64-S128"
target triple = "x86_64-pc-linux-gnu"

; Function Attrs: nounwind uwtable
define internal double @r_float_bin(ptr noundef %0) #0 {
  %2 = alloca double, align 8
  %3 = alloca ptr, align 8
  %4 = alloca ptr, align 8
  %5 = alloca i32, align 4
  store ptr %0, ptr %3, align 8, !tbaa !23
  call void @llvm.lifetime.start.p0(i64 8, ptr %4) #11
  %6 = load ptr, ptr %3, align 8, !tbaa !23
  %7 = call ptr @r_string(i64 noundef 8, ptr noundef %6)
  store ptr %7, ptr %4, align 8, !tbaa !37
  %8 = load ptr, ptr %4, align 8, !tbaa !37
  %9 = icmp eq ptr %8, null
  br i1 %9, label %10, label %11

10:                                               ; preds = %1
  store double -1.000000e+00, ptr %2, align 8
  store i32 1, ptr %5, align 4
  br label %14

11:                                               ; preds = %1
  %12 = load ptr, ptr %4, align 8, !tbaa !37
  %13 = call double @PyFloat_Unpack8(ptr noundef %12, i32 noundef 1)
  store double %13, ptr %2, align 8
  store i32 1, ptr %5, align 4
  br label %14

14:                                               ; preds = %11, %10
  call void @llvm.lifetime.end.p0(i64 8, ptr %4) #11
  %15 = load double, ptr %2, align 8
  ret double %15
}