; Function Attrs: nounwind uwtable
define internal fastcc double @r_float_bin(ptr noundef nonnull captures(none) %0) unnamed_addr #0 {
  %2 = tail call fastcc ptr @r_string(i64 noundef 8, ptr noundef %0)
  %3 = icmp eq ptr %2, null
  br i1 %3, label %6, label %4

4:                                                ; preds = %1
  %5 = tail call double @PyFloat_Unpack8(ptr noundef nonnull %2, i32 noundef 1) #11
  br label %6

6:                                                ; preds = %1, %4
  %.0 = phi double [ %5, %4 ], [ -1.000000e+00, %1 ]
  ret double %.0
}